; Function Attrs: nounwind uwtable
define ptr @l_Array_mapMUnsafe_map___at_Lean_Elab_Command_addInheritDocDefault___spec__1___boxed(ptr noundef %0, ptr noundef %1, ptr noundef %2, ptr noundef %3, ptr noundef %4, ptr noundef %5, ptr noundef %6, ptr noundef %7) local_unnamed_addr #0 {
  %9 = getelementptr i8, ptr %5, i64 8
  %.val27 = load i64, ptr %9, align 8, !tbaa !12
  %10 = ptrtoint ptr %5 to i64
  %11 = and i64 %10, 1
  %.not = icmp eq i64 %11, 0
  br i1 %.not, label %12, label %lean_dec.exit18

12:                                               ; preds = %8
  %13 = load i32, ptr %5, align 4, !tbaa !8
  %14 = icmp sgt i32 %13, 1
  br i1 %14, label %15, label %17, !prof !11

15:                                               ; preds = %12
  %16 = add nsw i32 %13, -1
  store i32 %16, ptr %5, align 4, !tbaa !8
  br label %lean_dec.exit18

17:                                               ; preds = %12
  %.not.i = icmp eq i32 %13, 0
  br i1 %.not.i, label %lean_dec.exit18, label %18

18:                                               ; preds = %17
  tail call void @lean_dec_ref_cold(ptr noundef nonnull %5) #6
  br label %lean_dec.exit18

lean_dec.exit18:                                  ; preds = %18, %17, %15, %8
  %19 = getelementptr i8, ptr %6, i64 8
  %.val = load i64, ptr %19, align 8, !tbaa !12
  %20 = ptrtoint ptr %6 to i64
  %21 = and i64 %20, 1
  %.not28 = icmp eq i64 %21, 0
  br i1 %.not28, label %22, label %lean_dec.exit17

22:                                               ; preds = %lean_dec.exit18
  %23 = load i32, ptr %6, align 4, !tbaa !8
  %24 = icmp sgt i32 %23, 1
  br i1 %24, label %25, label %27, !prof !11

25:                                               ; preds = %22
  %26 = add nsw i32 %23, -1
  store i32 %26, ptr %6, align 4, !tbaa !8
  br label %lean_dec.exit17

27:                                               ; preds = %22
  %.not.i19 = icmp eq i32 %23, 0
  br i1 %.not.i19, label %lean_dec.exit17, label %28

28:                                               ; preds = %27
  tail call void @lean_dec_ref_cold(ptr noundef nonnull %6) #6
  br label %lean_dec.exit17

lean_dec.exit17:                                  ; preds = %28, %27, %25, %lean_dec.exit18
  %29 = tail call ptr @l_Array_mapMUnsafe_map___at_Lean_Elab_Command_addInheritDocDefault___spec__1(ptr noundef %0, ptr noundef %1, ptr poison, ptr noundef %3, ptr poison, i64 noundef %.val27, i64 noundef %.val, ptr noundef %7)
  %30 = ptrtoint ptr %4 to i64
  %31 = and i64 %30, 1
  %.not29 = icmp eq i64 %31, 0
  br i1 %.not29, label %32, label %lean_dec.exit16

32:                                               ; preds = %lean_dec.exit17
  %33 = load i32, ptr %4, align 4, !tbaa !8
  %34 = icmp sgt i32 %33, 1
  br i1 %34, label %35, label %37, !prof !11

35:                                               ; preds = %32
  %36 = add nsw i32 %33, -1
  store i32 %36, ptr %4, align 4, !tbaa !8
  br label %lean_dec.exit16

37:                                               ; preds = %32
  %.not.i21 = icmp eq i32 %33, 0
  br i1 %.not.i21, label %lean_dec.exit16, label %38

38:                                               ; preds = %37
  tail call void @lean_dec_ref_cold(ptr noundef nonnull %4) #6
  br label %lean_dec.exit16

lean_dec.exit16:                                  ; preds = %38, %37, %35, %lean_dec.exit17
  %39 = ptrtoint ptr %2 to i64
  %40 = and i64 %39, 1
  %.not30 = icmp eq i64 %40, 0
  br i1 %.not30, label %41, label %lean_dec.exit15

41:                                               ; preds = %lean_dec.exit16
  %42 = load i32, ptr %2, align 4, !tbaa !8
  %43 = icmp sgt i32 %42, 1
  br i1 %43, label %44, label %46, !prof !11

44:                                               ; preds = %41
  %45 = add nsw i32 %42, -1
  store i32 %45, ptr %2, align 4, !tbaa !8
  br label %lean_dec.exit15

46:                                               ; preds = %41
  %.not.i23 = icmp eq i32 %42, 0
  br i1 %.not.i23, label %lean_dec.exit15, label %47

47:                                               ; preds = %46
  tail call void @lean_dec_ref_cold(ptr noundef nonnull %2) #6
  br label %lean_dec.exit15

lean_dec.exit15:                                  ; preds = %47, %46, %44, %lean_dec.exit16
  %48 = ptrtoint ptr %1 to i64
  %49 = and i64 %48, 1
  %.not31 = icmp eq i64 %49, 0
  br i1 %.not31, label %50, label %lean_dec.exit

50:                                               ; preds = %lean_dec.exit15
  %51 = load i32, ptr %1, align 4, !tbaa !8
  %52 = icmp sgt i32 %51, 1
  br i1 %52, label %53, label %55, !prof !11

53:                                               ; preds = %50
  %54 = add nsw i32 %51, -1
  store i32 %54, ptr %1, align 4, !tbaa !8
  br label %lean_dec.exit

55:                                               ; preds = %50
  %.not.i25 = icmp eq i32 %51, 0
  br i1 %.not.i25, label %lean_dec.exit, label %56

56:                                               ; preds = %55
  tail call void @lean_dec_ref_cold(ptr noundef nonnull %1) #6
  br label %lean_dec.exit

lean_dec.exit:                                    ; preds = %56, %55, %53, %lean_dec.exit15
  ret ptr %29
}